(lp0
V9780385419949
p1
aV9780471978442
p2
aV9780130676344
p3
aV9780471202837
p4
aV9780136365648
p5
aV9780201432879
p6
aV9780486497082
p7
aV9780131856622
p8
aV9781558511439
p9
aV9780060570057
p10
aV9781886411029
p11
aV9780534199326
p12
aV9780801481574
p13
aV9780486497372
p14
aV9781137264121
p15
aV9780385721868
p16
aV9780061234002
p17
aV9780916571023
p18
aV9780486492957
p19
aV9780681101630
p20
aV9781590597538
p21
aV9780201119541
p22
aV9780199230235
p23
aV9780387767222
p24
aV9781575860107
p25
aV9781590598474
p26
aV9780131963696
p27
aV9780465046744
p28
aV9780201746136
p29
aV9780892133253
p30
aV9780321205681
p31
aV9780201703726
p32
aV2900814757108
p33
aV9780131038059
p34
aV9780123694591
p35
aV9780131470460
p36
aV9780133281132
p37
aV9780133281057
p38
aV9780300149234
p39
aV9780782143379
p40
aV9780201447873
p41
aV9780393072228
p42
aV9781594201226
p43
aV9781482614374
p44
aV9780442018962
p45
aV9780452295544
p46
aV9780385496049
p47
aV9780764574818
p48
aV9781593271800
p49
aV9781565921276
p50
aV9780933201651
p51
aV9780674029736
p52
aV9780060575014
p53
aV9780446677455
p54
aV9780521304207
p55
aV9780486779782
p56
aV9780618918683
p57
aV9780716745020
p58
aV9780385334853
p59
aV9780534424084
p60
aV9780316367547
p61
aV9780136012603
p62
aV9781568985633
p63
aV9781592401468
p64
aV9780670860180
p65
aV9780815334811
p66
aV9780805371468
p67
aV9780716743392
p68
aV9780697243607
p69
aV9780632038015
p70
aV9781859960448
p71
aV9780253220929
p72
aV9781884942068
p73
aV9780060912109
p74
aV9780684853949
p75
aV9780226468013
p76
aV9780941423427
p77
aV9780596100063
p78
aV9780517119129
p79
aV9780395903537
p80
aV9780385484510
p81
aV9780440245759
p82
aV9780156701600
p83
aV9780547053707
p84
aV9781932416121
p85
aV9780670814466
p86
aV9780767906036
p87
aV9780471048855
p88
aV9781892391551
p89
aV9780060558192
p90
aV9780099116417
p91
aV9780743299732
p92
aV9780811212731
p93
aV9780195127126
p94
aV9780689119682
p95
aV9780375701900
p96
aV9780060761356
p97
aV9780765316738
p98
aV9781889307312
p99
aV9780439740685
p100
aV9780007139842
p101
aV9781933390253
p102
aV9783000502132
p103
aV6879909851426
p104
aV9781567511727
p105
aV9780553591736
p106
aV9781400096909
p107
aV9780765353702
p108
aV9781420106862
p109
aV9780007166053
p110
aV9780765365385
p111
aV9780765368669
p112
aV9780765358998
p113
aV9780765344151
p114
aV9780441015665
p115
aV9780940685291
p116
aV9781570270451
p117
aV9781580420037
p118
aV9780385513531
p119
aV9780192805041
p120
aV9781423101499
p121
aV9780679456995
p122
aV9781578512218
p123
aV9780805836752
p124
aV9780060875411
p125
aV9780306813542
p126
aV9780517548233
p127
aV9780875102108
p128
aV9871565045062
p129
aV9780615314389
p130
aV9780938077626
p131
aV9780393322750
p132
aV9780415043199
p133
aV9781424335114
p134
aV9780684832562
p135
aV9780080410142
p136
aV9780697219107
p137
aV9780199252329
p138
aV9780471932192
p139
aV9780140104325
p140
aV9780558496180
p141
aV9780030259517
p142
aV9781426206399
p143
aV9781403996015
p144
aV9780596100759
p145
aV9780066214139
p146
aV9780679419464
p147
aV9781932416060
p148
aV9780307454553
p149
aV9780802136794
p150
aV9781555976088
p151
aV9781594630187
p152
aV9780066214122
p153
aV9780345524522
p154
aV9780136556893
p155
aV9780793536696
p156
aV9780387946856
p157
aV9781847084798
p158
aV9780764501067
p159
aV9780805062977
p160
aV9781863736527
p161
aV9780740733000
p162
aV9780307951526
p163
aV9780449907528
p164
aV9781449390419
p165
aV9781884777790
p166
aV9780596529833
p167
aV9780991516650
p168
aV9780991516667
p169
aV9780991516643
p170
aV9780892131341
p171
aV9781593077730
p172
aV9780321321367
p173
aV9780156030205
p174
aV9780029146736
p175
aV9781439181782
p176
aV9781558608320
p177
aV9781593270124
p178
aV9780136142317
p179
aV9780201703313
p180
aV9781590595350
p181
aV9780672327124
p182
aV9780670882175
p183
aV9781893554153
p184
aV9780803733978
p185
aV9781933988030
p186
aV9781932394153
p187
aV9781932394986
p188
aV9781935182801
p189
aV9780672328558
p190
aV9780735709218
p191
aV9780204964261
p192
aV9780135259658
p193
aV9780078820267
p194
aV9780978739232
p195
aV9781593273880
p196
aV9781932394207
p197
aV9780321334220
p198
aV9780387954561
p199
aV9781932394351
p200
aV9780942299793
p201
aV9780316051637
p202
aV9780316010665
p203
aV9780141033303
p204
aV9780380788620
p205
aV9780439139595
p206
aV9780307268136
p207
aV9780833030306
p208
aV9780071490832
p209
aV9780385495318
p210
aV9781425965884
p211
aV9781582340760
p212
aV9780321292377
p213
aV9780980181203
p214
aV9780743250627
p215
aV9781401301316
p216
aV9780952614715
p217
aV9780553346688
p218
aV9780262631877
p219
aV9781583225493
p220
aV9781402212178
p221
aV9780262560993
p222
aV9780375706691
p223
aV9780375719264
p224
aV9780806523798
p225
aV9780399128295
p226
aV9780312204884
p227
aV9780471720836
p228
aV9780262730099
p229
aV9780446525688
p230
aV9780442018634
p231
aV9781568810546
p232
aV9780767918435
p233
aV9780684824055
p234
aV9780671693633
p235
aV9780136299813
p236
aV9781400082469
p237
aV9780131112049
p238
aV9780534352752
p239
aV9780679426455
p240
aV9780387949291
p241
aV9781594630392
p242
aV9780789702777
p243
aV9780446581899
p244
aV9780226401188
p245
aV9780558585112
p246
aV9780071113281
p247
aV9781437701289
p248
aV9780536403124
p249
aV9780671657130
p250
aV9780071215572
p251
aV9780521674126
p252
aV9781844253715
p253
aV9780471268796
p254
aV9780895294296
p255
aV9780262062534
p256
aV9780787293314
p257
aV9780816310074
p258
aV9780786888016
p259
aV9780595385485
p260
aV9780316328357
p261
aV9780495563327
p262
aV9780534352158
p263
aV9780716743743
p264
aV9780767902762
p265
aV9780130271631
p266
aV9780375821813
p267
aV9780061031557
p268
aV9780988628601
p269
aV9788466632195
p270
aV9781848840294
p271
aV9780192801357
p272
aV9782253003441
p273
aV9784915645211
p274
aV9780321236425
p275
aV9780471748311
p276
aV9783826614507
p277
aV9781593271763
p278
aV9780312101398
p279
aV9780495112860
p280
aV9780618246984
p281
aV9780618669073
p282
aV9780307267603
p283
aV9787561910405
p284
aV9787561910429
p285
aV9780415183796
p286
aV9780262710077
p287
aV9780132968980
p288
aV9780471453802
p289
aV9780140145342
p290
aV9780198537595
p291
aV9781590594421
p292
aV9780140145342
p293
aV9780060391485
p294
aV9780136734437
p295
aV9780312083434
p296
aV9780393041248
p297
aV9780071358927
p298
aV9780875845852
p299
aV9781929752300
p300
aV9780684835587
p301
aV9780130601230
p302
aV9780137483105
p303
aV9780805346336
p304
aV9781590790632
p305
aV9781593273859
p306
aV9780061709715
p307
aV9780316373142
p308
aV9780520089495
p309
aV9780070066342
p310
aV9780262633635
p311
aV9780835606684
p312
aV9780944958384
p313
aV9780393311525
p314
aV9780821225752
p315
aV9780697058591
p316
aV9780060969288
p317
aV9780671754648
p318
aV9780715314005
p319
aV9781558284487
p320
aV9781581152159
p321
aV9780486493480
p322
aV9780789467119
p323
aV9781593271374
p324
aV9780517662007
p325
aV9780486491172
p326
aV9780596520762
p327
aV9781434891471
p328
aV9780596101886
p329
aV9780071379298
p330
aV9781935551034
p331
aV9780743289689
p332
aV9780738546575
p333
aV9781408809785
p334
aV9781741047394
p335
aV9780864425560
p336
aV9781741046731
p337
aV9780911010589
p338
aV9781400013975
p339
aV9780486428000
p340
aV9780312254995
p341
aV9780984260027
p342
aV9780385249461
p343
aV9780316677462
p344
aV9780936184975
p345
aV9781933615622
p346
aV9780936184807
p347
aV9780936184678
p348
aV9781933615233
p349
aV9782920845565
p350
aV9780688058524
p351
aV9780936184661
p352
aV9781933615172
p353
aV9780878424955
p354
aV9780811808248
p355
aV9780765316981
p356
aV9780937175644
p357
aV9780387207568
p358
aV9781593272784
p359
aV9781904600411
p360
aV9781593270544
p361
aV9781593271541
p362
aV9780471117094
p363
aV9781593271503
p364
aV9781893956285
p365
aV9780321591814
p366
aV9780674805903
p367
aV9780892131341
p368
aV9780393704754
p369
aV9781562761455
p370
aV9780974514086
p371
aV9780849762635
p372
aV9780072375879
p373
aV9780872598812
p374
aV9780895884886
p375
aV9780060995140
p376
aV9780312306182
p377
aV9780743488617
p378
aV9780679736547
p379
aV9780375726866
p380
aV9780673386021
p381
aV9780764574818
p382
aV9780131177055
p383
aV9780137538157
p384
aV9780471375234
p385
aV9780201100884
p386
aV9780307454546
p387
aV9781928982029
p388
aV9780321321282
p389
aV9781568303697
p390
aV9780130354945
p391
aV9780201409963
p392
aV9780078821455
p393
aV9780201658934
p394
aV9780070317161
p395
aV9780121339609
p396
aV9780240516561
p397
aV9780823013340
p398
aV9781558284364
p399
aV9780923891879
p400
aV9781565921276
p401
aV9780201896848
p402
aV9781558512146
p403
aV9780867202045
p404
aV9780750623032
p405
aV9780135904725
p406
aV9780262571234
p407
aV9780123705914
p408
aV9780321278777
p409
aV9780072226010
p410
aV9780984072248
p411
aV9780134376257
p412
aV9781484076002
p413
aV9781435117419
p414
aV9781565125957
p415
aV9780470037874
p416
aV9781578700431
p417
aV9781565926929
p418
aV9781861008350
p419
aV9781861002969
p420
aV9780471453246
p421
aV9780978739256
p422
aV9780205622191
p423
aV9780130142955
p424
aV9780670846177
p425
aV9780743446600
p426
aV9780596101800
p427
aV9781590595336
p428
aV9780756655297
p429
aV9780470227800
p430
aV9781590599938
p431
aV9781933988351
p432
aV9780976694083
p433
aV9780596002848
p434
aV9781578701902
p435
aV9780596002145
p436
aV9780201616415
p437
aV9780912045108
p438
aV9780071346160
p439
aV9780070513440
p440
aV9780619215293
p441
aV9780201702798
p442
aV9780805321661
p443
aV9180581583909
p444
aV9780596003098
p445
aV9780201874020
p446
aV9780071092197
p447
aV9780131872493
p448
aV9780830634897
p449
aV9780131103627
p450
aV9780133262247
p451
aV9780596003012
p452
aV9781936754076
p453
aV9780075579045
p454
aV9781934356586
p455
aV9781934356234
p456
aV9781934356005
p457
aV9780134546469
p458
aV9780131315099
p459
aV9780321616951
p460
aV9780321509024
p461
aV9781562059309
p462
aV9780201657838
p463
aV9782021190496
p464
aV9780201750812
p465
aV9780596101978
p466
aV9780985978839
p467
aV9780934375900
p468
aV9780201514599
p469
aV9780201834543
p470
aV9780201589580
p471
aV9780672226199
p472
aV9780789721280
p473
aV9780954734510
p474
aV9780201357486
p475
aV9780201571684
p476
aV9780070511866
p477
aV9780557604142
p478
aV9780130614667
p479
aV9781562058104
p480
aV9780982634813
p481
aV9781886411845
p482
aV9781430219200
p483
aV9780596006266
p484
aV9780521692694
p485
aV9780596102258
p486
aV9780130854568
p487
aV9780534379995
p488
aV9780201808797
p489
aV9780201338676
p490
aV9780534931544
p491
aV9780486492964
p492
aV9780130909442
p493
aV9780132125895
p494
aV9781568811345
p495
aV9780387693187
p496
aV9780880294188
p497
aV9780123285539
p498
aV9780486491677
p499
aV9780195335927
p500
aV9780387952970
p501
aV9780198534471
p502
aV9780486780849
p503
aV9780387331973
p504
aV9780321227362
p505
aV9780471181798
p506
aV9780201709704
p507
aV9780534920265
p508
aV9780321693945
p509
aV9780072316940
p510
aV9780138440930
p511
aV9780764587825
p512
aV9780201709827
p513
aV9780486480909
p514
aV9780135638347
p515
aV9781592577224
p516
aV9781118446713
p517
aV9780471368571
p518
aV9780521641760
p519
aV5486951682406
p520
aV9780124077263
p521
aV9780070406599
p522
aV9781558608603
p523
aV9781593274122
p524
aV9780521636360
p525
aV9781568810232
p526
aV9780471175407
p527
aV9780691102986
p528
aV9781558606180
p529
aV9780201508680
p530
aV9780387985992
p531
aV9780715322994
p532
aV9781568811239
p533
aV9781584500377
p534
aV9780471380894
p535
aV9780131816299
p536
aV9781430219484
p537
aV9781443728836
p538
aV9781904811374
p539
aV9780123229854
p540
aV9780130959904
p541
aV9780830632411
p542
aV9781889892191
p543
aV9780201876970
p544
aV9781558603394
p545
aV9780201509236
p546
aV9781563471070
p547
aV9781558603295
p548
aV9780122490521
p549
aV9781558603875
p550
aV9781558604551
p551
aV9780495439455
p552
aV9780262210133
p553
aV9780262692182
p554
aV9780262082051
p555
aV9780134989242
p556
aV9780672227738
p557
aV9788120307490
p558
aV9780139498763
p559
aV9781558609013
p560
aV9780486493367
p561
aV9780201121100
p562
aV9780471963561
p563
aV9780831131111
p564
aV9781568810393
p565
aV9780321193629
p566
aV9780486493831
p567
aV9780471089551
p568
aV9780201624205
p569
aV9780387942889
p570
aV9780070535480
p571
aV9780534505356
p572
aV9780201558029
p573
aV9780321498823
p574
aV9783540637370
p575
aV9780070535299
p576
aV9780387986821
p577
aV9781886801813
p578
aV9781568810409
p579
aV9780124605107
p580
aV9780125547659
p581
aV9780139546945
p582
aV9780201657654
p583
aV9780201604580
p584
aV9780201624953
p585
aV9780201385977
p586
aV9780201632743
p587
aV9780849326578
p588
aV9780471089537
p589
aV9781568810072
p590
aV9781562059545
p591
aV9780030156649
p592
aV9780983507901
p593
aV9780596008666
p594
aV9780817639730
p595
aV9780387987934
p596
aV9780534932190
p597
aV9781932416763
p598
aV9780130808981
p599
aV9781565921481
p600
aV9780077079369
p601
aV9780030164873
p602
aV9780072831801
p603
aV9780521639224
p604
aV9780691119359
p605
aV9780521627276
p606
aV9780071798990
p607
aV9780071452816
p608
aV9781562765309
p609
aV9780078414497
p610
aV9781578702749
p611
aV9780122290633
p612
aV9781593271855
p613
aV9780471320005
p614
aV9780030156540
p615
aV9780805389609
p616
aV9780201557213
p617
aV9780471274711
p618
aV9780201675238
p619
aV9780201565485
p620
aV9780132199087
p621
aV9780130319999
p622
aV9780201509397
p623
aV9780131868915
p624
aV9781573980135
p625
aV9780672227158
p626
aV9780201563177
p627
aV9780131429017
p628
aV9780201557039
p629
aV9780136816850
p630
aV9780974078502
p631
aV9780321193667
p632
aV9781886411746
p633
aV9780201546293
p634
aV9780596005160
p635
aV9780201549799
p636
aV9780201702453
p637
aV9781411695740
p638
aV9780979034220
p639
aV9780764500657
p640
aV9773540605295
p641
aV9780471922537
p642
aV9780471953838
p643
aV9781558608689
p644
aV9780201357547
p645
aV9780201498264
p646
aV9780321130006
p647
aV9781849687881
p648
aV9780201725971
p649
aV9781930110434
p650
aV9780321409492
p651
aV9781565922709
p652
aV9780201634747
p653
aV9780130385604
p654
aV9780982106013
p655
aV9780072369656
p656
aV9780262571043
p657
aV9780201181272
p658
aV9780201066630
p659
aV9780672485442
p660
aV9780938151104
p661
aV9780201518146
p662
aV9780201143966
p663
aV9780201379228
p664
aV9780938151128
p665
aV9780201523720
p666
aV9780201626285
p667
aV9781565922570
p668
aV9780838448557
p669
aV9780201581355
p670
aV9780201568899
p671
aV9780201548341
p672
aV9780805325720
p673
aV9780138027292
p674
aV9780713677041
p675
aV9781593270476
p676
aV9780596514983
p677
aV9780201633542
p678
aV9780201634952
p679
aV9780201633542
p680
aV9780321525567
p681
aV9780321303479
p682
aV9780980455229
p683
aV9780596802448
p684
aV9781449381813
p685
aV9780596802448
p686
aV9781878707093
p687
aV9780830642588
p688
aV9780070230248
p689
aV9780131115514
p690
aV9780130206015
p691
aV9781782166061
p692
aV9781562059347
p693
aV9780072225624
p694
aV9781565922259
p695
aV9781584504047
p696
aV9788590379829
p697
aV9780880227452
p698
aV9780256230444
p699
aV9781894893671
p700
aV9781401864699
p701
aV9780130224965
p702
aV9781590592120
p703
aV9781580530187
p704
aV9780201141924
p705
aV9780596005856
p706
aV9780030085420
p707
aV9780735649729
p708
aV9781932394900
p709
aV9781884777790
p710
aV9780078819087
p711
aV9780262610940
p712
aV9780937175835
p713
aV9781576104262
p714
aV9780977920150
p715
aV9780764525087
p716
aV9780201331431
p717
aV9780672327209
p718
aV9780782127379
p719
aV9780596000950
p720
aV9781599180304
p721
aV9780072130812
p722
aV9780471787532
p723
aV9789861371429
p724
aV9780486477220
p725
aV9780198602958
p726
aV9780139536212
p727
aV9780138896010
p728
aV9780534362133
p729
aV9780071126663
p730
aV9780521277037
p731
aV9780852742624
p732
aV9780201447873
p733
aV9781558510371
p734
aV9780471547860
p735
aV9780932415608
p736
aV9781604390094
p737
aV9780385520690
p738
aV9780130652454
p739
aV9780201544282
p740
aV9780486671642
p741
aV2900471629473
p742
aV9781570610646
p743
aV9780072496406
p744
aV9782021190496
p745
aV9780521633031
p746
aV9780521809122
p747
aV9780521323840
p748
aV9780521633048
p749
aV9780201503975
p750
aV9780691025308
p751
aV9781107407367
p752
aV9780521635035
p753
aV9780716703440
p754
aV9780517884416
p755
aV9780079121479
p756
aV9780199560264
p757
aV9780521831437
p758
aV9783540591795
p759
aV9780521860697
p760
aV9780471401940
p761
aV9780226870335
p762
aV9780078111006
p763
aV9780399146442
p764
aV9780132758437
p765
aV9780155055353
p766
aV9780471941866
p767
aV9780198520115
p768
aV9780201119824
p769
aV9780521550017
p770
aV9780761988106
p771
aV9780819568311
p772
aV9781569710746
p773
aV9781569710722
p774
aV9780375856679
p775
aV9781569710715
p776
aV9781569711033
p777
aV9781401222765
p778
aV9781569710746
p779
aV9780744000986
p780
aV9780786926541
p781
aV9780786928897
p782
aV9780786915507
p783
aV9780786928866
p784
aV9780786918362
p785
aV9780786915507
p786
aV9780786915514
p787
aV9781593272777
p788
aV9781560766193
p789
aV9780786918362
p790
aV9780880387385
p791
aV9789861371429
p792
aV9781401210854
p793
aV9781401210847
p794
aV9781401210823
p795
aV9789074597135
p796
aV9780914171072
p797
aV9780914171393
p798
aV9789074597012
p799
aV9780131451315
p800
aV9781590595244
p801
aV9781587200847
p802
aV9781879505667
p803
aV9780465030798
p804
aV9780136916437
p805
aV9780072322064
p806
aV9780972751346
p807
aV9780735626010
p808
aV9780312195762
p809
aV9780596008505
p810
aV9780130102256
p811
aV9780470521465
p812
aV9780132091510
p813
aV9780201354218
p814
aV9780596155469
p815
aV9781449305659
p816
aV9780134770840
p817
aV9780536647368
p818
aV9780321503619
p819
aV9781596914520
p820
aV9781578700462
p821
aV9781587130380
p822
aV9781587201820
p823
aV9780470343432
p824
aV9781587130250
p825
aV9780072123692
p826
aV9781578700691
p827
aV9780446675215
p828
aV9780782126471
p829
aV9781587200854
p830
aV9781587051425
p831
aV9781578700745
p832
aV9780735700758
p833
aV9781578700929
p834
aV9781578700912
p835
aV9780735708754
p836
aV9780767928595
p837
aV9781400065417
p838
aV9781741047318
p839
aV9781563521867
p840
aV9781906332150
p841
aV9781401201135
p842
aV9780596001100
p843
aV9780321635273
p844
aV9780201749694
p845
aV9781859606414
p846
aV9781569710722
p847
aV9780375856679
p848
aV9781569710715
p849
aV9781569710746
p850
aV9781401222765
p851
aV9781569711033
p852
aV9780761537434
p853
aV9780744000986
p854
aV9780744001648
p855
aV9781566867146
p856
aV9780744004298
p857
aV9780744001099
p858
aV9780830619382
p859
aV9780672210358
p860
aV9780471578062
p861
aV9780596510541
p862
aV9780767908184
p863
aV9780387974958
p864
aV9781893007161
p865
aV9780201704556
p866
aV9780830633487
p867
aV9780071373241
p868
aV9780863774317
p869
aV9780750650380
p870
aV9780750648127
p871
aV9780767907682
p872
aV9780743250627
p873
aV9780536860194
p874
aV9780375502989
p875
aV9781428205048
p876
aV9780470562314
p877
aV9780486493572
p878
aV9780521377096
p879
aV9780813016283
p880
aV9780743272094
p881
aV9780061353208
p882
aV9781932360523
p883
aV9780195142518
p884
aV9780446524568
p885
aV9780439899345
p886
aV9780764533983
p887
aV9780945053316
p888
aV9780486780405
p889
aV9780307908292
p890
aV9780240514291
p891
aV9780262571333
p892
aV9780486409245
p893
aV9781446525807
p894
aV9780471681762
p895
aV9780670861941
p896
aV9784756242730
p897
aV9781565928718
p898
aV9780446579223
p899
aV9780684824291
p900
aV9781573223072
p901
aV9780387981406
p902
aV9780673523785
p903
aV9780750648615
p904
aV9781570272424
p905
aV9781565922617
p906
aV9780764539152
p907
aV9780801870712
p908
aV9781592006175
p909
aV9781566869041
p910
aV9780982106013
p911
aV9780982106006
p912
aV9780982106006
p913
aV9781422466018
p914
aV9780470858929
p915
aV9780805306149
p916
aV9780201709131
p917
aV9781565920491
p918
aV9780060932138
p919
aV9780596102258
p920
aV9780442318956
p921
aV9780120451425
p922
aV9780679756972
p923
aV9780198568926
p924
aV9780201761757
p925
aV9780762416981
p926
aV9781439040379
p927
aV9780073324654
p928
aV9788131726266
p929
aV9780916856014
p930
aV9780822020646
p931
aV9780201702453
p932
aV9780767906036
p933
aV9789866805271
p934
aV9781593271800
p935
aV9780201310061
p936
aV9781558608689
p937
aV9780201310054
p938
aV9780201310092
p939
aV9781405471923
p940
aV9781564969699
p941
aV9780596101800
p942
aV9781934356005
p943
aV9780321127136
p944
aV9780596006624
p945
aV9781889307305
p946
aV9783826609268
p947
aV9780201549775
p948
aV9780321733580
p949
aV9780471170266
p950
aV9781884777790
p951
aV9780201634952
p952
aV9781590595336
p953
aV9780321193667
p954
aV9780134684147
p955
aV9780735640580
p956
aV9781413303957
p957
aV9780812091410
p958
aV9780321357588
p959
aV9780789733603
p960
aV9780672322174
p961
aV9781598639674
p962
aV9780735619814
p963
aV9780471692645
p964
aV9780201549799
p965
aV9780134659640
p966
aV9780070506862
p967
aV9781893007246
p968
aV9780137130481
p969
aV9780672329647
p970
aV9781618650566
p971
aV9780201433203
p972
aV9780596004477
p973
aV9780072263114
p974
aV9780618149230
p975
aV9780977616633
p976
aV2370000094384
p977
aV9780471981411
p978
aV9780471358466
p979
aV9781590595589
p980
aV9780534608675
p981
aV9780596008741
p982
aV9780812921175
p983
aV9780198125211
p984
aV9780195300055
p985
aV9781586482787
p986
aV9780765309419
p987
aV9780262680691
p988
aV9780393977776
p989
aV9780486492773
p990
aV9780385249461
p991
aV9780321446114
p992
aV9780765316974
p993
aV9780486200705
p994
aV9781844675050
p995
aV9780986650208
p996
aV9780201107456
p997
aV9780984563531
p998
aV9781400079278
p999
aV9780679863717
p1000
aV9780894120480
p1001
aV9780521497770
p1002
aV9780553374841
p1003
aV9781890132736
p1004
aV9781428205987
p1005
aV9780471741176
p1006
aV9780486781211
p1007
aV9780137035335
p1008
aV9780899971889
p1009
aV9781903450505
p1010
aV9780262161831
p1011
aV9780716750383
p1012
aV9781451656299
p1013
aV9780139724497
p1014
aV9780439405591
p1015
aV9781568028798
p1016
aV9783950237238
p1017
aV9780688210847
p1018
aV9780393078145
p1019
aV9780865712317
p1020
aV9780486471426
p1021
aV9781566910842
p1022
aV9783775719674
p1023
aV9781590596456
p1024
aV9781928982029
p1025
aV9780060938451
p1026
aV9780201694710
p1027
aV9780932813206
p1028
aV9780471539698
p1029
aV9780558389093
p1030
aV9780785273226
p1031
aV9780486284590
p1032
aV9780879850067
p1033
aV9780486492841
p1034
aV9780879850067
p1035
aV9780060938451
p1036
aV9780201694710
p1037
aV9781928982029
p1038
aV9780679024644
p1039
aV9780312664800
p1040
aV9780756615697
p1041
aV9788481560770
p1042
aV9781934386132
p1043
aV9781423958925
p1044
aV9781426020773
p1045
aV9781426020896
p1046
aV9781426020728
p1047
aV9781845990473
p1048
aV9780486499826
p1049
aV9781933615011
p1050
aV9780898155174
p1051
aV9781843090687
p1052
aV9780534590048
p1053
aV9780822020332
p1054
aV9780534529291
p1055
aV9780130340740
p1056
aV9780321219145
p1057
aV9780070025592
p1058
aV9780486493510
p1059
aV9781469901732
p1060
aV9780735202344
p1061
aV9780201889543
p1062
aV9780385721868
p1063
aV9781405473699
p1064
aV9780823021741
p1065
aV9780486497389
p1066
aV9780486780498
p1067
aV9780442208349
p1068
aV9780471333272
p1069
aV9782090338720
p1070
aV9781118736067
p1071
aV9781435442023
p1072
aV9781422466032
p1073
aV9780314939449
p1074
aV9780764505270
p1075
aV9780977809318
p1076
aV9780735709249
p1077
aV9780471055891
p1078
aV9781565922365
p1079
aV9780486202952
p1080
aV9780201760347
p1081
aV9780486497372
p1082
aV9781931836050
p1083
aV9780442319465
p1084
aV9781590595008
p1085
aV9780917510304
p1086
aV9780060961640
p1087
aV9781624072680
p1088
aV9780321580092
p1089
aV9780132730358
p1090
aV9780596000028
p1091
aV9780764536915
p1092
aV9780321321893
p1093
aV9781594201530
p1094
aV9781565922358
p1095
aV9780596009625
p1096
aV9780937175026
p1097
aV9780596007652
p1098
aV9781565922433
p1099
aV9781565923249
p1100
aV9780596007072
p1101
aV9781565923508
p1102
aV9780596007249
p1103
aV9780137136681
p1104
aV9780596521974
p1105
aV9780596009779
p1106
aV9781565922433
p1107
aV9781565928398
p1108
aV9781565922686
p1109
aV9780596003135
p1110
aV9780596001629
p1111
aV9781565923584
p1112
aV9780596004781
p1113
aV9780596002633
p1114
aV9780596003968
p1115
aV9780596101718
p1116
aV9780596006525
p1117
aV9781565921498
p1118
aV9780596002411
p1119
aV9780596100926
p1120
aV9781565925120
p1121
aV9780596000271
p1122
aV9780596006396
p1123
aV9780596002190
p1124
aV9781449312947
p1125
aV9781565921276
p1126
aV9780596003593
p1127
aV9780937175224
p1128
aV9780596001032
p1129
aV9781449304577
p1130
aV9780596000271
p1131
aV9780596001780
p1132
aV9781565921153
p1133
aV9781565922204
p1134
aV9781565922846
p1135
aV9780596520106
p1136
aV9781565926097
p1137
aV9781565926998
p1138
aV9780596800673
p1139
aV9781449304577
p1140
aV9781565923140
p1141
aV9780596153649
p1142
aV9781565923218
p1143
aV9780596510336
p1144
aV9780937175644
p1145
aV9780596527242
p1146
aV9781565925878
p1147
aV9781565921498
p1148
aV9780596102357
p1149
aV9780596510480
p1150
aV9780596007348
p1151
aV9780596005573
p1152
aV9780596006792
p1153
aV9780596000417
p1154
aV9780596000271
p1155
aV9780937175750
p1156
aV9780596002244
p1157
aV9781565924345
p1158
aV9780596002244
p1159
aV9780596514334
p1160
aV9781565924833
p1161
aV9780596009786
p1162
aV9780596001971
p1163
aV9780596001841
p1164
aV9780937175644
p1165
aV9780596102432
p1166
aV9780937175644
p1167
aV9781565922860
p1168
aV9781449312961
p1169
aV9781449393090
p1170
aV9781565922143
p1171
aV9780596002121
p1172
aV9780596802356
p1173
aV9781565924499
p1174
aV9780596518738
p1175
aV9780596006990
p1176
aV9781565923881
p1177
aV9780596100650
p1178
aV9781565927094
p1179
aV9781565923881
p1180
aV9780596155896
p1181
aV9781565927162
p1182
aV9780596002541
p1183
aV9780321320735
p1184
aV9781482614374
p1185
aV9780865716513
p1186
aV9781562056742
p1187
aV9781565922822
p1188
aV9781118034699
p1189
aV9781934781869
p1190
aV9780141001470
p1191
aV9780596527310
p1192
aV9780978739225
p1193
aV9780978739225
p1194
aV9780321517067
p1195
aV9780974514055
p1196
aV9781593270018
p1197
aV9781593271510
p1198
aV9781593270032
p1199
aV9781593270629
p1200
aV9781593271459
p1201
aV9781593272944
p1202
aV9781593271459
p1203
aV9781593272067
p1204
aV9781593270568
p1205
aV9781593271657
p1206
aV9780070419735
p1207
aV9780070087149
p1208
aV9780070379909
p1209
aV9780070379909
p1210
aV9780070650503
p1211
aV9780070080195
p1212
aV9780070178977
p1213
aV9781565922846
p1214
aV9781565924949
p1215
aV9780596004927
p1216
aV9781565922204
p1217
aV9780596007973
p1218
aV9781556229114
p1219
aV9781565922204
p1220
aV9780596001674
p1221
aV9780596000271
p1222
aV0395489334
p1223
aV0399130276
p1224
aV0316779490
p1225
aV0060778776
p1226
aV0961533625
p1227
aV0961533609
p1228
aV8798242865
p1229
aV0201134454
p1230
aV0963926004
p1231
aV0387503358
p1232
aV0201113716
p1233
aV0393955052
p1234
aV0201113724
p1235
aV0201136880
p1236
aV0201116693
p1237
aV0671436724
p1238
aV0395348358
p1239
aV0201099241
p1240
aV0312851820
p1241
aV0380016761
p1242
aV0425045048
p1243
aV0345272609
p1244
aV0345272587
p1245
aV0345339738
p1246
aV0395272238
p1247
aV0441011799
p1248
aV0767411919
p1249
aV0138487065
p1250
aV0767903331
p1251
aV0878571043
p1252
aV0811722341
p1253
aV0878140301
p1254
aV0472030213
p1255
aV0201634643
p1256
aV0874550254
p1257
aV0935696865
p1258
aV0670006025
p1259
aV0937175722
p1260
aV0471498432
p1261
aV0201615886
p1262
aV0201057778
p1263
aV0300012020
p1264
aV0913022004
p1265
aV0394588320
p1266
aV0394569296
p1267
aV0385037244
p1268
aV0834004267
p1269
aV0151000913
p1270
aV0374129983
p1271
aV0890871892
p1272
aV0399140557
p1273
aV0899430767
p1274
aV0809243687
p1275
aV0060539828
p1276
aV0960983805
p1277
aV0935696873
p1278
aV089512002X
p1279
aV0822951185
p1280
aV0131548409
p1281
aV0316491705
p1282
aV0201185385
p1283
aV0030259886
p1284
aV0915005069
p1285
aV0764100947
p1286
aV0028616731
p1287
aV0805000763
p1288
aV0895772647
p1289
aV055583874X
p1290
aV0442260458
p1291
aV0262022257
p1292
aV0914845802
p1293
aV0316491705
p1294
aV0807841080
p1295
aV0938734180
p1296
aV026216082X
p1297
aV1558601317
p1298
aV0761537082
p1299
aV0887308910
p1300
aV0789709252
p1301
aV0070508992
p1302
aV0941434400
p1303
aV0517448629
p1304
aV0807841676
p1305
aV0789203294
p1306
aV0825695023
p1307
aV0867062002
p1308
aV0823039889
p1309
aV068818474X
p1310
aV0929001037
p1311
aV0299024245
p1312
aV051753312X
p1313
aV0688069355
p1314
aV0873938551
p1315
aV0517037491
p1316
aV0394467442
p1317
aV0140073140
p1318
aV0807727490
p1319
aV1885203993
p1320
aV0516016849
p1321
aV0810409801
p1322
aV0064539148
p1323
aV0914845462
p1324
aV1581131046
p1325
aV020156291x
p1326
aV0897919467
p1327
aV1932416080
p1328
aV0201696835
p1329
aV0201038099
p1330
aV020103803x
p1331
aV1558604286
p1332
aV093237607x
p1333
aV1558604421
p1334
aV0201103311
p1335
aV0387976345
p1336
aV0078816742
p1337
aV0442316054
p1338
aV1558604103
p1339
aV0830627677
p1340
aV0880220732
p1341
aV0130337765
p1342
aV0070431094
p1343
aV0931988411
p1344
aV1558600671
p1345
aV1555420117
p1346
aV0672214164
p1347
aV0974514012
p1348
aV0201612445
p1349
aV3540176292
p1350
aV0596008678
p1351
aV1565927443
p1352
aV0872594173
p1353
aV0070404445
p1354
aV0136859674
p1355
aV020112078x
p1356
aV0574219552
p1357
aV0201137925
p1358
aV0805368604
p1359
aV0131168983
p1360
aV0471585122
p1361
aV0672484285
p1362
aV0136864945
p1363
aV0321113470
p1364
aV0471304158
p1365
aV0137231563
p1366
aV0521431085
p1367
aV0387123288
p1368
aV0130039217
p1369
aV0871509571
p1370
aV0470000120
p1371
aV0534348068
p1372
aV0761916210
p1373
aV0201771292
p1374
aV0534372813
p1375
aV0155647512
p1376
aV0525473157
p1377
aV0075537834
p1378
aV0070654166
p1379
aV1558603484
p1380
aV0672225115
p1381
aV0898712807
p1382
aV0898713064
p1383
aV0931228085
p1384
aV0262081660
p1385
aV0387971491
p1386
aV0201504340
p1387
aV0131627937
p1388
aV0582445469
p1389
aV0122861655
p1390
aV0138544891
p1391
aV0070398674
p1392
aV0070475660
p1393
aV0201180596
p1394
aV0201144557
p1395
aV0262730820
p1396
aV0139428895
p1397
aV0201134489
p1398
aV0132145103
p1399
aV0070535345
p1400
aV0387700064
p1401
aV012460515x
p1402
aV0470272511
p1403
aV3540139206
p1404
aV0121348806
p1405
aV3540550753
p1406
aV0070267537
p1407
aV0137306490
p1408
aV0070463387
p1409
aV0070535272
p1410
aV091489465x
p1411
aV0201110261
p1412
aV0201192454
p1413
aV0898712815
p1414
aV0898713323
p1415
aV0201741865
p1416
aV0898712823
p1417
aV0122579607
p1418
aV0133525597
p1419
aV0201144689
p1420
aV0120644800
p1421
aV0387961313
p1422
aV0831111828
p1423
aV3540536442
p1424
aV0849390508
p1425
aV3211830499
p1426
aV0201607956
p1427
aV0897917022
p1428
aV0201110768
p1429
aV0201110776
p1430
aV0121176509
p1431
aV0471406457
p1432
aV0442226462
p1433
aV0831110023
p1434
aV0816867518
p1435
aV0201847760
p1436
aV0201588897
p1437
aV0201515857
p1438
aV0534979939
p1439
aV0393952827
p1440
aV0262061422
p1441
aV0878915079
p1442
aV0201129175
p1443
aV0134608666
p1444
aV0201137917
p1445
aV0155930257
p1446
aV0123708303
p1447
aV0810462672
p1448
aV0672224976
p1449
aV0131019082
p1450
aV0471532711
p1451
aV0201061961
p1452
aV0198500262
p1453
aV0201179911
p1454
aV047021533x
p1455
aV0893036609
p1456
aV0201773430
p1457
aV0130313580
p1458
aV0394341570
p1459
aV0201529831
p1460
aV0201134489
p1461
aV0201134446
p1462
aV020115790x
p1463
aV0262192993
p1464
aV0201176335
p1465
aV0962628905
p1466
aV0817641327
p1467
aV0932376029
p1468
aV0201103931
p1469
aV0932376886
p1470
aV0137306970
p1471
aV0917072111
p1472
aV0321410971
p1473
aV187870723x
p1474
aV0471613061
p1475
aV0672225786
p1476
aV0201142198
p1477
aV0201142287
p1478
aV013699976x
p1479
aV084937104x
p1480
aV0835944344
p1481
aV0130893684
p1482
aV0470201924
p1483
aV0139334416
p1484
aV0201141965
p1485
aV0914894420
p1486
aV0937175293
p1487
aV1555580122
p1488
aV093717579x
p1489
aV0139721673
p1490
aV0134999975
p1491
aV0131965018
p1492
aV0130374903
p1493
aV0691010196
p1494
aV0824760093
p1495
aV0070320713
p1496
aV0306447908
p1497
aV0521590825
p1498
aV0080339328
p1499
aV0139721428
p1500
aV0521387531
p1501
aV1563966530
p1502
aV0761537430
p1503
aV0671680978
p1504
aV0943151163
p1505
aV0935696024
p1506
aV0935696008
p1507
aV0935696210
p1508
aV0880380314
p1509
aV0935696229
p1510
aV0935696016
p1511
aV0916211215
p1512
aV0935696148
p1513
aV093569613X
p1514
aV0935696261
p1515
aV0935696202
p1516
aV0880380020
p1517
aV0935696288
p1518
aV093569627X
p1519
aV0935696245
p1520
aV0935696075
p1521
aV0935696601
p1522
aV0880380179
p1523
aV0935696563
p1524
aV0880380071
p1525
aV0935696156
p1526
aV0935696725
p1527
aV0935696253
p1528
aV0880380039
p1529
aV0935696105
p1530
aV0070126089
p1531
aV0895883430
p1532
aV0198596332
p1533
aV8370663238
p1534
aV0618338128
p1535
aV0070398836
p1536
aV0911575634
p1537
aV8477780021
p1538
aV0918786460
p1539
aV0851993419
p1540
aV0226468011
p1541
aV1559370033
p1542
aV0201542757
p1543
aV0201177536
p1544
aV0273085948
p1545
aV0070701326
p1546
aV0895771004
p1547
aV0835213277
p1548
aV0830631372
p1549
aV9074134173
p1550
aV0262081830
p1551
aV0134986830
p1552
aV067141819X
p1553
aV0915920670
p1554
aV0895770865
p1555
aV8798342428
p1556
aV0671680978
p1557
aV0943151163
p1558
aV0830610545
p1559
aV0830618759
p1560
aV0830619380
p1561
aV0914894730
p1562
aV0914894234
p1563
aV0672219328
p1564
aV0672214164
p1565
aV0672213133
p1566
aV0960329412
p1567
aV0131625799
p1568
aV9889705486
p1569
aV0810408643
p1570
aV0672240068
p1571
aV0830601775
p1572
aV031287717X
p1573
aV0471624357
p1574
aV0133817490
p1575
aV0262082047
p1576
aV0830600302
p1577
aV0139652280
p1578
aV0070398615
p1579
aV0070388458
p1580
aV0135367220
p1581
aV085934049X
p1582
aV0721630758
p1583
aV0070404461
p1584
aV0932764029
p1585
aV0394553780
p1586
aV0672214822
p1587
aV0721630723
p1588
aV0810457539
p1589
aV0684870649
p1590
aV0830698590
p1591
aV0672203103
p1592
aV0897918185
p1593
aV0132490048
p1594
aV0030073286
p1595
aV0672216868
p1596
aV0672204762
p1597
aV0070477094
p1598
aV1579652417
p1599
aV0205129331
p1600
aV0675091683
p1601
aV007020974X
p1602
aV0023540818
p1603
aV0471469300
p1604
aV013805763X
p1605
aV0894801376
p1606
aV1557553645
p1607
aV0962124176
p1608
aV0671507400
p1609
aV067313346X
p1610
aV0517073617
p1611
aV0941434214
p1612
aV0810462672
p1613
aV0262610256
p1614
aV0442292643
p1615
aV0878350950
p1616
aV0132222205
p1617
aV0195031784
p1618
aV0126491402
p1619
aV0890066000
p1620
aV0155427369
p1621
aV026221010X
p1622
aV0201106981
p1623
aV0070354987
p1624
aV0262032937
p1625
aV020119127X
p1626
aV0201409925
p1627
aV1556367546
p1628
aV0122635906
p1629
aV0131097601
p1630
aV0675089921
p1631
aV0534944469
p1632
aV020131018X
p1633
aV0201103311
p1634
aV0672215241
p1635
aV0830609644
p1636
aV0486277771
p1637
aV0122252101
p1638
aV0824813715
p1639
aV0553099531
p1640
aV0672211610
p1641
aV0812054350
p1642
aV0716600889
p1643
aV0442263902
p1644
aV0316373168
p1645
aV0671741322
p1646
aV0062732765
p1647
aV080703102X
p1648
aV0574240055
p1649
aV0201175606
p1650
aV0135533880
p1651
aV0819421081
p1652
aV0387905685
p1653
aV0829920978
p1654
aV0070115893
p1655
aV1581133944
p1656
aV052129763X
p1657
aV0878915826
p1658
aV0568810741
p1659
aV0070115893
p1660
aV0070267510
p1661
aV0521096626
p1662
aV0871567210
p1663
aV0673347516
p1664
aV0878575731
p1665
aV0394549082
p1666
aV0822700948
p1667
aV0672222353
p1668
aV087168652X
p1669
aV0871686465
p1670
aV0871686309
p1671
aV0262560380
p1672
aV0852291582
p1673
aV2915925186
p1674
aV0696204533
p1675
aV0395361451
p1676
aV067323908X
p1677
aV0937175315
p1678
aV0937175609
p1679
aV0596102119
p1680
aV0937175224
p1681
aV1565922360
p1682
aV0321445619
p1683
aV0070054894
p1684
aV0070602662
p1685
aV0070527660
p1686
aV0070230625
p1687
a.