(lp0
V9780486497082
p1
aV9780486497372
p2
aV9780486492957
p3
aV9780199230235
p4
aV2900814757108
p5
aV9781482614374
p6
aV9780452295544
p7
aV9780486779782
p8
aV9781889307312
p9
aV9780439740685
p10
aV9783000502132
p11
aV6879909851426
p12
aV9780765353702
p13
aV9780765365385
p14
aV9780765368669
p15
aV9871565045062
p16
aV9780615314389
p17
aV9781424335114
p18
aV9780471932192
p19
aV9780558496180
p20
aV9781426206399
p21
aV9781847084798
p22
aV9780991516650
p23
aV9780991516667
p24
aV9780991516643
p25
aV9781935182801
p26
aV9780204964261
p27
aV9780141033303
p28
aV9780558585112
p29
aV9780536403124
p30
aV9780071215572
p31
aV9780495563327
p32
aV9780988628601
p33
aV9788466632195
p34
aV9781848840294
p35
aV9783826614507
p36
aV9780486493480
p37
aV9780486491172
p38
aV9780596520762
p39
aV9781434891471
p40
aV9781935551034
p41
aV9781408809785
p42
aV9781741047394
p43
aV9781741046731
p44
aV9780849762635
p45
aV9781484076002
p46
aV9781435117419
p47
aV9781590599938
p48
aV9180581583909
p49
aV9781936754076
p50
aV9782021190496
p51
aV9780985978839
p52
aV9780954734510
p53
aV9780557604142
p54
aV9780982634813
p55
aV9780486492964
p56
aV9780486491677
p57
aV9780486780849
p58
aV9780138440930
p59
aV9781118446713
p60
aV5486951682406
p61
aV9780124077263
p62
aV9780521636360
p63
aV9781443728836
p64
aV9780495439455
p65
aV9780486493367
p66
aV9780486493831
p67
aV9780521627276
p68
aV9780071798990
p69
aV9773540605295
p70
aV9781849687881
p71
aV9780982106013
p72
aV9781782166061
p73
aV9780977920150
p74
aV9789861371429
p75
aV9781604390094
p76
aV2900471629473
p77
aV9782021190496
p78
aV9781107407367
p79
aV9781401222765
p80
aV9789861371429
p81
aV9780465030798
p82
aV9780134770840
p83
aV9780536647368
p84
aV9781596914520
p85
aV9780072123692
p86
aV9781906332150
p87
aV9781401222765
p88
aV9780536860194
p89
aV9780486493572
p90
aV9780486780405
p91
aV9780307908292
p92
aV9781446525807
p93
aV9784756242730
p94
aV9781570272424
p95
aV9780982106013
p96
aV9780982106006
p97
aV9780982106006
p98
aV9781422466018
p99
aV9781439040379
p100
aV9788131726266
p101
aV9780822020646
p102
aV9789866805271
p103
aV9781405471923
p104
aV9781889307305
p105
aV9783826609268
p106
aV9781893007246
p107
aV9780137130481
p108
aV9781618650566
p109
aV2370000094384
p110
aV9780486492773
p111
aV9780986650208
p112
aV9780984563531
p113
aV9781428205987
p114
aV9780486781211
p115
aV9781451656299
p116
aV9783950237238
p117
aV9780393078145
p118
aV9780486471426
p119
aV9780558389093
p120
aV9780486492841
p121
aV9780312664800
p122
aV9781423958925
p123
aV9781426020773
p124
aV9781426020896
p125
aV9781426020728
p126
aV9780486499826
p127
aV9780486493510
p128
aV9781405473699
p129
aV9780486497389
p130
aV9780486780498
p131
aV9781118736067
p132
aV9781435442023
p133
aV9781422466032
p134
aV9780314939449
p135
aV9780486497372
p136
aV9781624072680
p137
aV9780132730358
p138
aV9781449393090
p139
aV9781482614374
p140
aV9780865716513
p141
aV9781934781869
p142
aV0671436724
p143
aV0899430767
p144
aV0822951185
p145
aV055583874X
p146
aV0929001037
p147
aV0873938551
p148
aV0394467442
p149
aV020156291x
p150
aV020103803x
p151
aV093237607x
p152
aV020112078x
p153
aV0471304158
p154
aV0075537834
p155
aV012460515x
p156
aV3540550753
p157
aV091489465x
p158
aV047021533x
p159
aV020115790x
p160
aV187870723x
p161
aV013699976x
p162
aV084937104x
p163
aV093717579x
p164
aV0935696148
p165
aV0935696261
p166
aV0880380020
p167
aV0880380071
p168
aV8370663238
p169
aV8477780021
p170
aV0675089921
p171
aV0568810741
p172
aV0673347516
p173
aV2915925186
p174
aV0937175224
p175
a.