(lp0
V619472700716
p1
aV023472033055
p2
aV048228136330
p3
aV044903006998
p4
aV037145005997
p5
aV065373004994
p6
aV071001002751
p7
aV078073001958
p8
aV070999003955
p9
aV076783007505
p10
aV070999005997
p11
aV070999002958
p12
aV037145006994
p13
aV072742002253
p14
aV070999006994
p15
aV072742006992
p16
aV076814002950
p17
aV076714003958
p18
aV071831003959
p19
aV099455005951
p20
aV065373004994
p21
aV076783005952
p22
aV076714003507
p23
aV037145007991
p24
aV048228513476
p25
aV078073001958
p26
aV071001005998
p27
aV044903006950
p28
aV051488012955
p29
aV072742005506
p30
aV689253595350
p31
aV071136003951
p32
aV071149003955
p33
aV037145005997
p34
aV078073002252
p35
aV081262218570
p36
aV071001006995
p37
aV048228007951
p38
aV051857024954
p39
aV081262224052
p40
aV784376003680
p41
aV081262484203
p42
aV081262462904
p43
aV076714004993
p44
aV081262224496
p45
aV081262224038
p46
aV636920100072
p47
aV099751187405
p48
aV046363021214
p49
aV046363020170
p50
aV046363020187
p51
aV046363020200
p52
aV046363021016
p53
aV046363020194
p54
aV046363021108
p55
aV080742060227
p56
aV046363090760
p57
aV046363090753
p58
aV046363091163
p59
aV046363091125
p60
aV046363092139
p61
aV046363091262
p62
aV046363010607
p63
aV046363010317
p64
aV073999992922
p65
aV761941237640
p66
aV078814003999
p67
aV081262224519
p68
aV636920003625
p69
aV636920004011
p70
aV636920005407
p71
aV074470844600
p72
aV074470844600
p73
aV071009002753
p74
aV037038018950
p75
aV725274844609
p76
aV016067014959
p77
aV045863052469
p78
aV636920920908
p79
aV636920925125
p80
aV636920000204
p81
aV636920000396
p82
aV636920000266
p83
aV636920924340
p84
aV636920928430
p85
aV636920923121
p86
aV639785316725
p87
aV852766001568
p88
aV783254031340
p89
aV639785326731
p90
aV639785400653
p91
aV639785300564
p92
a.