(lp0
V0023540818
p1
aV0028616731
p2
aV0030073286
p3
aV0030259886
p4
aV0060539828
p5
aV0060593083
p6
aV0060778776
p7
aV006251587X
p8
aV0062732765
p9
aV0064539148
p10
aV0070054894
p11
aV007011076X
p12
aV0070112762
p13
aV0070115893
p14
aV0070126089
p15
aV0070151164
p16
aV007020974X
p17
aV0070230625
p18
aV0070267510
p19
aV0070267537
p20
aV0070320713
p21
aV0070354987
p22
aV0070388458
p23
aV0070398615
p24
aV0070398674
p25
aV0070398836
p26
aV0070404445
p27
aV0070404461
p28
aV0070431094
p29
aV0070463387
p30
aV0070475660
p31
aV0070477094
p32
aV0070508992
p33
aV0070527660
p34
aV0070535272
p35
aV0070535345
p36
aV0070602662
p37
aV0070654166
p38
aV0070701326
p39
aV0078816742
p40
aV0080339328
p41
aV0120644800
p42
aV0121176509
p43
aV0121348806
p44
aV0122252101
p45
aV0122579607
p46
aV0122635906
p47
aV0122861655
p48
aV0123708303
p49
aV0126491402
p50
aV0130039217
p51
aV0130313580
p52
aV0130337765
p53
aV0130374903
p54
aV0130893684
p55
aV0131019082
p56
aV0131097601
p57
aV0131168983
p58
aV0131548409
p59
aV0131625799
p60
aV0131627937
p61
aV0131965018
p62
aV0132145103
p63
aV0132222205
p64
aV0132490048
p65
aV0133525597
p66
aV0133817490
p67
aV0134243757
p68
aV0134608666
p69
aV0134986830
p70
aV0134999975
p71
aV0135367220
p72
aV0135533880
p73
aV0136859674
p74
aV0136864945
p75
aV0137231563
p76
aV0137306490
p77
aV0137306970
p78
aV013805763X
p79
aV0138487065
p80
aV0138544891
p81
aV0139334416
p82
aV0139428895
p83
aV0139652280
p84
aV0139721428
p85
aV0139721673
p86
aV0140073140
p87
aV0151000913
p88
aV0155427369
p89
aV0155647512
p90
aV0155930257
p91
aV0195031784
p92
aV0198500262
p93
aV0198596332
p94
aV0201038099
p95
aV0201057778
p96
aV0201061961
p97
aV0201099241
p98
aV0201103311
p99
aV0201103931
p100
aV0201106981
p101
aV0201110261
p102
aV0201110768
p103
aV0201110776
p104
aV0201113716
p105
aV0201113724
p106
aV0201116693
p107
aV0201129175
p108
aV0201134446
p109
aV0201134454
p110
aV0201134489
p111
aV0201136880
p112
aV0201137917
p113
aV0201137925
p114
aV0201141965
p115
aV0201142198
p116
aV0201142287
p117
aV0201144557
p118
aV0201144689
p119
aV0201175606
p120
aV0201176335
p121
aV0201177536
p122
aV0201179911
p123
aV0201180596
p124
aV0201185385
p125
aV020119127X
p126
aV0201192454
p127
aV020131018X
p128
aV0201409925
p129
aV0201504340
p130
aV0201515857
p131
aV0201529831
p132
aV0201542757
p133
aV0201588897
p134
aV0201607956
p135
aV0201612445
p136
aV0201615886
p137
aV0201634643
p138
aV0201696835
p139
aV0201741865
p140
aV0201771292
p141
aV0201773430
p142
aV0201847760
p143
aV0205129331
p144
aV0226468011
p145
aV0262022257
p146
aV0262032937
p147
aV0262061422
p148
aV0262081660
p149
aV0262081830
p150
aV0262082047
p151
aV026216082X
p152
aV0262192993
p153
aV026221010X
p154
aV0262560380
p155
aV0262610256
p156
aV0262730820
p157
aV0273085948
p158
aV0299024245
p159
aV0300012020
p160
aV0306447908
p161
aV0312851820
p162
aV031287717X
p163
aV0316373168
p164
aV0316491705
p165
aV0316779490
p166
aV0321113470
p167
aV0321321898
p168
aV0321410971
p169
aV0321445619
p170
aV0321898680
p171
aV0345272587
p172
aV0345272609
p173
aV0345333853
p174
aV0345339738
p175
aV0374129983
p176
aV0380016761
p177
aV0380703882
p178
aV0385037244
p179
aV0387123288
p180
aV0387503358
p181
aV0387700064
p182
aV0387905685
p183
aV0387961313
p184
aV0387971491
p185
aV0387976345
p186
aV0393952827
p187
aV0393955052
p188
aV0394341570
p189
aV0394520351
p190
aV0394549082
p191
aV0394553780
p192
aV0394569296
p193
aV0394588320
p194
aV0395272238
p195
aV0395348358
p196
aV0395361451
p197
aV0395489334
p198
aV0399130276
p199
aV0399140557
p200
aV0425045048
p201
aV0441011799
p202
aV0442226462
p203
aV0442260458
p204
aV0442263902
p205
aV0442292643
p206
aV0442316054
p207
aV0470000120
p208
aV0470050659
p209
aV0470201924
p210
aV0470272511
p211
aV0471406457
p212
aV0471469300
p213
aV0471498432
p214
aV0471532711
p215
aV0471585122
p216
aV0471613061
p217
aV0471624357
p218
aV0472030213
p219
aV0486277771
p220
aV0516016849
p221
aV0517037491
p222
aV0517052466
p223
aV0517073617
p224
aV0517448629
p225
aV051753312X
p226
aV0521096626
p227
aV052129763X
p228
aV0521387531
p229
aV0521431085
p230
aV0521590825
p231
aV0525473157
p232
aV0534348068
p233
aV0534372813
p234
aV0534944469
p235
aV0534979939
p236
aV0553099531
p237
aV0574219552
p238
aV0574240055
p239
aV0582445469
p240
aV0596000022
p241
aV0596008678
p242
aV0596102119
p243
aV0618338128
p244
aV0618437851
p245
aV0670006025
p246
aV067141819X
p247
aV0671507400
p248
aV0671680978
p249
aV0671741322
p250
aV0672203103
p251
aV0672204762
p252
aV0672210355
p253
aV0672211610
p254
aV0672213133
p255
aV0672214164
p256
aV0672214822
p257
aV0672215241
p258
aV0672216868
p259
aV0672219328
p260
aV0672222353
p261
aV0672224976
p262
aV0672225115
p263
aV0672225786
p264
aV0672240068
p265
aV0672240343
p266
aV0672325861
p267
aV0672484285
p268
aV067313346X
p269
aV067323908X
p270
aV0675091683
p271
aV0684870649
p272
aV0688069355
p273
aV068818474X
p274
aV0691010196
p275
aV0696204533
p276
aV0716600889
p277
aV0721630723
p278
aV0721630758
p279
aV0761537082
p280
aV0761537430
p281
aV0761916210
p282
aV0764100947
p283
aV0764119818
p284
aV0765317419
p285
aV0767411919
p286
aV0767903331
p287
aV0789203294
p288
aV0789709252
p289
aV0805000763
p290
aV0805368604
p291
aV080703102X
p292
aV0807727490
p293
aV0807841080
p294
aV0807841676
p295
aV0809243687
p296
aV0810408643
p297
aV0810409801
p298
aV0810457539
p299
aV0810462672
p300
aV0811722341
p301
aV0812054350
p302
aV0816867518
p303
aV0817641327
p304
aV0818665475
p305
aV0819421081
p306
aV0822700948
p307
aV0823039889
p308
aV0824760093
p309
aV0824813715
p310
aV0825695023
p311
aV0829920978
p312
aV0830600302
p313
aV0830601775
p314
aV0830609644
p315
aV0830610545
p316
aV0830618759
p317
aV0830619380
p318
aV083061964X
p319
aV0830627677
p320
aV0830631372
p321
aV0830633480
p322
aV0830638962
p323
aV0830698590
p324
aV0831110023
p325
aV0831111828
p326
aV0834004267
p327
aV0835213277
p328
aV0835944344
p329
aV0849390508
p330
aV0851993419
p331
aV0852291582
p332
aV085934049X
p333
aV0867062002
p334
aV0871509571
p335
aV0871567210
p336
aV0871686309
p337
aV0871686465
p338
aV087168652X
p339
aV0872594173
p340
aV0872599280
p341
aV0874550254
p342
aV0878140301
p343
aV0878350950
p344
aV0878571043
p345
aV0878575731
p346
aV0878915079
p347
aV0878915826
p348
aV0880220732
p349
aV0880380039
p350
aV0880380179
p351
aV0880380314
p352
aV0887308910
p353
aV0890066000
p354
aV0890871892
p355
aV0893036609
p356
aV0894801376
p357
aV089512002X
p358
aV0895121042
p359
aV0895770865
p360
aV0895771004
p361
aV0895772647
p362
aV0895883430
p363
aV0897917022
p364
aV0897918185
p365
aV0897919467
p366
aV0898712807
p367
aV0898712815
p368
aV0898712823
p369
aV0898713064
p370
aV0898713323
p371
aV0911575634
p372
aV0913022004
p373
aV0914845462
p374
aV0914845802
p375
aV0914894234
p376
aV0914894420
p377
aV0914894730
p378
aV0915005069
p379
aV0915920670
p380
aV0916211215
p381
aV0917072111
p382
aV0918786460
p383
aV0931228085
p384
aV0931988411
p385
aV0932376029
p386
aV0932376886
p387
aV0932764029
p388
aV0935696008
p389
aV0935696016
p390
aV0935696024
p391
aV0935696075
p392
aV0935696105
p393
aV093569613X
p394
aV0935696156
p395
aV0935696202
p396
aV0935696210
p397
aV0935696229
p398
aV0935696245
p399
aV0935696253
p400
aV093569627X
p401
aV0935696288
p402
aV0935696563
p403
aV0935696601
p404
aV0935696725
p405
aV0935696865
p406
aV0935696873
p407
aV0937175293
p408
aV0937175315
p409
aV0937175609
p410
aV0937175722
p411
aV0938734180
p412
aV0941434214
p413
aV0941434400
p414
aV0943151163
p415
aV0960329412
p416
aV0960983805
p417
aV0961533609
p418
aV0961533625
p419
aV0962124176
p420
aV0962628905
p421
aV0963926004
p422
aV0970246323
p423
aV0974078514
p424
aV0974514012
p425
aV1555420117
p426
aV1555580122
p427
aV1556367546
p428
aV1557553645
p429
aV1558600671
p430
aV1558601317
p431
aV1558603484
p432
aV1558604103
p433
aV1558604286
p434
aV1558604421
p435
aV1559370033
p436
aV1563894815
p437
aV1563895684
p438
aV1563966530
p439
aV1565922360
p440
aV1565927443
p441
aV1568985525
p442
aV1579652417
p443
aV1581131046
p444
aV1581133944
p445
aV1885203993
p446
aV1932416080
p447
aV3211830499
p448
aV3540139206
p449
aV3540176292
p450
aV3540536442
p451
aV3822876135
p452
aV8798242865
p453
aV8798342428
p454
aV9074134173
p455
aV9780007139842
p456
aV9780007166053
p457
aV9780029146736
p458
aV9780030085420
p459
aV9780030156540
p460
aV9780030156649
p461
aV9780030164873
p462
aV9780030259517
p463
aV9780060391485
p464
aV9780060558192
p465
aV9780060570057
p466
aV9780060575014
p467
aV9780060761356
p468
aV9780060875411
p469
aV9780060912109
p470
aV9780060932138
p471
aV9780060938451
p472
aV9780060961640
p473
aV9780060969288
p474
aV9780060995140
p475
aV9780061031557
p476
aV9780061234002
p477
aV9780061353208
p478
aV9780061709715
p479
aV9780066214122
p480
aV9780066214139
p481
aV9780070025592
p482
aV9780070066342
p483
aV9780070080195
p484
aV9780070087149
p485
aV9780070178977
p486
aV9780070230248
p487
aV9780070317161
p488
aV9780070379909
p489
aV9780070406599
p490
aV9780070419735
p491
aV9780070506862
p492
aV9780070511866
p493
aV9780070513440
p494
aV9780070535299
p495
aV9780070535480
p496
aV9780070650503
p497
aV9780071092197
p498
aV9780071113281
p499
aV9780071126663
p500
aV9780071346160
p501
aV9780071358927
p502
aV9780071373241
p503
aV9780071379298
p504
aV9780071452816
p505
aV9780071490832
p506
aV9780072130812
p507
aV9780072225624
p508
aV9780072226010
p509
aV9780072263114
p510
aV9780072316940
p511
aV9780072322064
p512
aV9780072369656
p513
aV9780072375879
p514
aV9780072496406
p515
aV9780072831801
p516
aV9780073324654
p517
aV9780075579045
p518
aV9780077079369
p519
aV9780078111006
p520
aV9780078414497
p521
aV9780078819087
p522
aV9780078820267
p523
aV9780078821455
p524
aV9780079121479
p525
aV9780080410142
p526
aV9780099116417
p527
aV9780120451425
p528
aV9780121339609
p529
aV9780122290633
p530
aV9780122490521
p531
aV9780123229854
p532
aV9780123285539
p533
aV9780123694591
p534
aV9780123705914
p535
aV9780124605107
p536
aV9780125547659
p537
aV9780130102256
p538
aV9780130142955
p539
aV9780130206015
p540
aV9780130224965
p541
aV9780130271631
p542
aV9780130319999
p543
aV9780130340740
p544
aV9780130354945
p545
aV9780130385604
p546
aV9780130601230
p547
aV9780130614667
p548
aV9780130652454
p549
aV9780130676344
p550
aV9780130808981
p551
aV9780130854568
p552
aV9780130909442
p553
aV9780130959904
p554
aV9780131038059
p555
aV9780131103627
p556
aV9780131112049
p557
aV9780131115514
p558
aV9780131177055
p559
aV9780131315099
p560
aV9780131429017
p561
aV9780131451315
p562
aV9780131470460
p563
aV9780131774292
p564
aV9780131816299
p565
aV9780131856622
p566
aV9780131868915
p567
aV9780131872493
p568
aV9780131963696
p569
aV9780132091510
p570
aV9780132125895
p571
aV9780132199087
p572
aV9780132758437
p573
aV9780132968980
p574
aV9780133262247
p575
aV9780133281057
p576
aV9780133281132
p577
aV9780134376257
p578
aV9780134546469
p579
aV9780134659640
p580
aV9780134684147
p581
aV9780134989242
p582
aV9780135259658
p583
aV9780135638347
p584
aV9780135904725
p585
aV9780136012603
p586
aV9780136142317
p587
aV9780136299813
p588
aV9780136365648
p589
aV9780136556893
p590
aV9780136734437
p591
aV9780136816850
p592
aV9780136916437
p593
aV9780137035335
p594
aV9780137136681
p595
aV9780137483105
p596
aV9780137538157
p597
aV9780138027292
p598
aV9780138896010
p599
aV9780139498763
p600
aV9780139536212
p601
aV9780139546945
p602
aV9780139724497
p603
aV9780140104325
p604
aV9780140145342
p605
aV9780141001470
p606
aV9780155055353
p607
aV9780156030205
p608
aV9780156701600
p609
aV9780192801357
p610
aV9780192805041
p611
aV9780195127126
p612
aV9780195142518
p613
aV9780195300055
p614
aV9780195335927
p615
aV9780198125211
p616
aV9780198520115
p617
aV9780198534471
p618
aV9780198537595
p619
aV9780198568926
p620
aV9780198602958
p621
aV9780199252329
p622
aV9780199560264
p623
aV9780201066630
p624
aV9780201100884
p625
aV9780201107456
p626
aV9780201119541
p627
aV9780201119824
p628
aV9780201121100
p629
aV9780201141924
p630
aV9780201143966
p631
aV9780201181272
p632
aV9780201310054
p633
aV9780201310061
p634
aV9780201310092
p635
aV9780201331431
p636
aV9780201338676
p637
aV9780201354218
p638
aV9780201357486
p639
aV9780201357547
p640
aV9780201379228
p641
aV9780201385977
p642
aV9780201409963
p643
aV9780201432879
p644
aV9780201433203
p645
aV9780201447873
p646
aV9780201498264
p647
aV9780201503975
p648
aV9780201508680
p649
aV9780201509236
p650
aV9780201509397
p651
aV9780201514599
p652
aV9780201518146
p653
aV9780201523720
p654
aV9780201544282
p655
aV9780201546293
p656
aV9780201548341
p657
aV9780201549775
p658
aV9780201549799
p659
aV9780201557039
p660
aV9780201557213
p661
aV9780201558029
p662
aV9780201563177
p663
aV9780201565485
p664
aV9780201568899
p665
aV9780201571684
p666
aV9780201581355
p667
aV9780201589580
p668
aV9780201604580
p669
aV9780201616415
p670
aV9780201624205
p671
aV9780201624953
p672
aV9780201626285
p673
aV9780201632743
p674
aV9780201633542
p675
aV9780201634747
p676
aV9780201634952
p677
aV9780201657654
p678
aV9780201657838
p679
aV9780201658934
p680
aV9780201675238
p681
aV9780201694710
p682
aV9780201702453
p683
aV9780201702798
p684
aV9780201703313
p685
aV9780201703726
p686
aV9780201704556
p687
aV9780201709131
p688
aV9780201709704
p689
aV9780201709827
p690
aV9780201725971
p691
aV9780201746136
p692
aV9780201749694
p693
aV9780201750812
p694
aV9780201760347
p695
aV9780201761757
p696
aV9780201808797
p697
aV9780201834543
p698
aV9780201874020
p699
aV9780201876970
p700
aV9780201889543
p701
aV9780201896848
p702
aV9780205622191
p703
aV9780226401188
p704
aV9780226468013
p705
aV9780226870335
p706
aV9780240514291
p707
aV9780240516561
p708
aV9780253220929
p709
aV9780256230444
p710
aV9780262062534
p711
aV9780262082051
p712
aV9780262161831
p713
aV9780262210133
p714
aV9780262560993
p715
aV9780262571043
p716
aV9780262571234
p717
aV9780262571333
p718
aV9780262610940
p719
aV9780262631877
p720
aV9780262633635
p721
aV9780262680691
p722
aV9780262692182
p723
aV9780262710077
p724
aV9780262730099
p725
aV9780300149234
p726
aV9780306813542
p727
aV9780307267603
p728
aV9780307268136
p729
aV9780307454546
p730
aV9780307454553
p731
aV9780307951526
p732
aV9780312083434
p733
aV9780312101398
p734
aV9780312195762
p735
aV9780312204884
p736
aV9780312254995
p737
aV9780312306182
p738
aV9780316010665
p739
aV9780316051637
p740
aV9780316200608
p741
aV9780316328357
p742
aV9780316367547
p743
aV9780316373142
p744
aV9780316677462
p745
aV9780321127136
p746
aV9780321130006
p747
aV9780321193629
p748
aV9780321193667
p749
aV9780321205681
p750
aV9780321219145
p751
aV9780321227362
p752
aV9780321236425
p753
aV9780321278777
p754
aV9780321292377
p755
aV9780321303479
p756
aV9780321320735
p757
aV9780321321282
p758
aV9780321321367
p759
aV9780321321893
p760
aV9780321334220
p761
aV9780321357588
p762
aV9780321409492
p763
aV9780321446114
p764
aV9780321489845
p765
aV9780321498823
p766
aV9780321503619
p767
aV9780321509024
p768
aV9780321517067
p769
aV9780321525567
p770
aV9780321580092
p771
aV9780321591814
p772
aV9780321616951
p773
aV9780321635273
p774
aV9780321693945
p775
aV9780321733580
p776
aV9780345524522
p777
aV9780375502989
p778
aV9780375701900
p779
aV9780375706691
p780
aV9780375719264
p781
aV9780375726866
p782
aV9780375821813
p783
aV9780375856679
p784
aV9780380788620
p785
aV9780385249461
p786
aV9780385334853
p787
aV9780385419949
p788
aV9780385484510
p789
aV9780385495318
p790
aV9780385496049
p791
aV9780385513531
p792
aV9780385520690
p793
aV9780385721868
p794
aV9780385731829
p795
aV9780387207568
p796
aV9780387331973
p797
aV9780387693187
p798
aV9780387767222
p799
aV9780387942889
p800
aV9780387946856
p801
aV9780387949291
p802
aV9780387952970
p803
aV9780387954561
p804
aV9780387974958
p805
aV9780387981406
p806
aV9780387985992
p807
aV9780387986821
p808
aV9780387987934
p809
aV9780393041248
p810
aV9780393072228
p811
aV9780393311525
p812
aV9780393322750
p813
aV9780393704754
p814
aV9780393977776
p815
aV9780395903537
p816
aV9780399128295
p817
aV9780399146442
p818
aV9780415043199
p819
aV9780415183796
p820
aV9780439139595
p821
aV9780439405591
p822
aV9780439899345
p823
aV9780440245759
p824
aV9780441015665
p825
aV9780442018634
p826
aV9780442018962
p827
aV9780442208349
p828
aV9780442318956
p829
aV9780442319465
p830
aV9780446524568
p831
aV9780446525688
p832
aV9780446579223
p833
aV9780446581899
p834
aV9780446675215
p835
aV9780446677455
p836
aV9780449907528
p837
aV9780465046744
p838
aV9780470037874
p839
aV9780470227800
p840
aV9780470343432
p841
aV9780470383346
p842
aV9780470521465
p843
aV9780470562314
p844
aV9780470858929
p845
aV9780471048855
p846
aV9780471055891
p847
aV9780471089537
p848
aV9780471089551
p849
aV9780471117094
p850
aV9780471170266
p851
aV9780471175407
p852
aV9780471181798
p853
aV9780471202837
p854
aV9780471268796
p855
aV9780471274711
p856
aV9780471320005
p857
aV9780471333272
p858
aV9780471358466
p859
aV9780471368571
p860
aV9780471375234
p861
aV9780471380894
p862
aV9780471401940
p863
aV9780471453246
p864
aV9780471453802
p865
aV9780471539698
p866
aV9780471547860
p867
aV9780471578062
p868
aV9780471681762
p869
aV9780471692645
p870
aV9780471720836
p871
aV9780471741176
p872
aV9780471748311
p873
aV9780471787532
p874
aV9780471922537
p875
aV9780471941866
p876
aV9780471953838
p877
aV9780471963561
p878
aV9780471978442
p879
aV9780471981411
p880
aV9780486200705
p881
aV9780486202952
p882
aV9780486284590
p883
aV9780486409245
p884
aV9780486428000
p885
aV9780486477220
p886
aV9780486480909
p887
aV9780486671642
p888
aV9780495112860
p889
aV9780517119129
p890
aV9780517548233
p891
aV9780517662007
p892
aV9780517884416
p893
aV9780520089495
p894
aV9780521277037
p895
aV9780521304207
p896
aV9780521323840
p897
aV9780521377096
p898
aV9780521497770
p899
aV9780521542623
p900
aV9780521550017
p901
aV9780521633031
p902
aV9780521633048
p903
aV9780521635035
p904
aV9780521639224
p905
aV9780521641760
p906
aV9780521674126
p907
aV9780521692694
p908
aV9780521809122
p909
aV9780521831437
p910
aV9780521860697
p911
aV9780534199326
p912
aV9780534352158
p913
aV9780534352752
p914
aV9780534362133
p915
aV9780534379995
p916
aV9780534424084
p917
aV9780534505356
p918
aV9780534529291
p919
aV9780534590048
p920
aV9780534608675
p921
aV9780534920265
p922
aV9780534931544
p923
aV9780534932190
p924
aV9780547053707
p925
aV9780553346688
p926
aV9780553374841
p927
aV9780553591736
p928
aV9780595385485
p929
aV9780596000028
p930
aV9780596000271
p931
aV9780596000417
p932
aV9780596000950
p933
aV9780596001032
p934
aV9780596001100
p935
aV9780596001629
p936
aV9780596001674
p937
aV9780596001780
p938
aV9780596001841
p939
aV9780596001971
p940
aV9780596002121
p941
aV9780596002145
p942
aV9780596002190
p943
aV9780596002244
p944
aV9780596002411
p945
aV9780596002541
p946
aV9780596002633
p947
aV9780596002848
p948
aV9780596003012
p949
aV9780596003098
p950
aV9780596003135
p951
aV9780596003593
p952
aV9780596003968
p953
aV9780596004477
p954
aV9780596004781
p955
aV9780596004927
p956
aV9780596005160
p957
aV9780596005573
p958
aV9780596005856
p959
aV9780596006266
p960
aV9780596006396
p961
aV9780596006525
p962
aV9780596006624
p963
aV9780596006792
p964
aV9780596006990
p965
aV9780596007072
p966
aV9780596007249
p967
aV9780596007348
p968
aV9780596007652
p969
aV9780596007973
p970
aV9780596008505
p971
aV9780596008666
p972
aV9780596008741
p973
aV9780596009625
p974
aV9780596009779
p975
aV9780596009786
p976
aV9780596100063
p977
aV9780596100650
p978
aV9780596100759
p979
aV9780596100926
p980
aV9780596101718
p981
aV9780596101800
p982
aV9780596101886
p983
aV9780596101978
p984
aV9780596102258
p985
aV9780596102357
p986
aV9780596102432
p987
aV9780596153649
p988
aV9780596155469
p989
aV9780596155896
p990
aV9780596510336
p991
aV9780596510480
p992
aV9780596510541
p993
aV9780596514334
p994
aV9780596514983
p995
aV9780596517748
p996
aV9780596518738
p997
aV9780596520106
p998
aV9780596521974
p999
aV9780596527242
p1000
aV9780596527310
p1001
aV9780596529833
p1002
aV9780596800673
p1003
aV9780596802356
p1004
aV9780596802448
p1005
aV9780618149230
p1006
aV9780618246984
p1007
aV9780618669073
p1008
aV9780618918683
p1009
aV9780619215293
p1010
aV9780632038015
p1011
aV9780670814466
p1012
aV9780670846177
p1013
aV9780670860180
p1014
aV9780670861941
p1015
aV9780670882175
p1016
aV9780671657130
p1017
aV9780671693633
p1018
aV9780671754648
p1019
aV9780672210358
p1020
aV9780672226199
p1021
aV9780672227158
p1022
aV9780672227738
p1023
aV9780672322174
p1024
aV9780672327124
p1025
aV9780672327209
p1026
aV9780672328558
p1027
aV9780672329647
p1028
aV9780672485442
p1029
aV9780673386021
p1030
aV9780673523785
p1031
aV9780674029736
p1032
aV9780674805903
p1033
aV9780679024644
p1034
aV9780679419464
p1035
aV9780679426455
p1036
aV9780679456995
p1037
aV9780679736547
p1038
aV9780679756972
p1039
aV9780679863717
p1040
aV9780681101630
p1041
aV9780684824055
p1042
aV9780684824291
p1043
aV9780684832562
p1044
aV9780684835587
p1045
aV9780684853949
p1046
aV9780688058524
p1047
aV9780688210847
p1048
aV9780689119682
p1049
aV9780691025308
p1050
aV9780691102986
p1051
aV9780691119359
p1052
aV9780697058591
p1053
aV9780697219107
p1054
aV9780697243607
p1055
aV9780713677041
p1056
aV9780715314005
p1057
aV9780715322994
p1058
aV9780716703440
p1059
aV9780716743392
p1060
aV9780716743743
p1061
aV9780716745020
p1062
aV9780716750383
p1063
aV9780735202344
p1064
aV9780735619814
p1065
aV9780735626010
p1066
aV9780735640580
p1067
aV9780735649729
p1068
aV9780735700758
p1069
aV9780735708754
p1070
aV9780735709218
p1071
aV9780735709249
p1072
aV9780738546575
p1073
aV9780740733000
p1074
aV9780743250627
p1075
aV9780743272094
p1076
aV9780743289689
p1077
aV9780743299732
p1078
aV9780743446600
p1079
aV9780743488617
p1080
aV9780744000986
p1081
aV9780744001099
p1082
aV9780744001648
p1083
aV9780744004298
p1084
aV9780750623032
p1085
aV9780750648127
p1086
aV9780750648615
p1087
aV9780750650380
p1088
aV9780756615697
p1089
aV9780756655297
p1090
aV9780761537434
p1091
aV9780761988106
p1092
aV9780762416981
p1093
aV9780764500657
p1094
aV9780764501067
p1095
aV9780764505270
p1096
aV9780764525087
p1097
aV9780764533983
p1098
aV9780764536915
p1099
aV9780764539152
p1100
aV9780764574818
p1101
aV9780764587825
p1102
aV9780765309419
p1103
aV9780765316738
p1104
aV9780765316974
p1105
aV9780765316981
p1106
aV9780765344151
p1107
aV9780765358998
p1108
aV9780767902762
p1109
aV9780767906036
p1110
aV9780767907682
p1111
aV9780767908184
p1112
aV9780767918435
p1113
aV9780767928595
p1114
aV9780782126471
p1115
aV9780782127379
p1116
aV9780782143379
p1117
aV9780785273226
p1118
aV9780786888016
p1119
aV9780786915507
p1120
aV9780786915514
p1121
aV9780786918362
p1122
aV9780786926541
p1123
aV9780786928866
p1124
aV9780786928897
p1125
aV9780787293314
p1126
aV9780789458803
p1127
aV9780789467119
p1128
aV9780789702777
p1129
aV9780789721280
p1130
aV9780789733603
p1131
aV9780793536696
p1132
aV9780801481574
p1133
aV9780801870712
p1134
aV9780802136794
p1135
aV9780803733978
p1136
aV9780805062977
p1137
aV9780805306149
p1138
aV9780805321661
p1139
aV9780805325720
p1140
aV9780805346336
p1141
aV9780805371468
p1142
aV9780805389609
p1143
aV9780805836752
p1144
aV9780806523798
p1145
aV9780811212731
p1146
aV9780811808248
p1147
aV9780812091410
p1148
aV9780812921175
p1149
aV9780813016283
p1150
aV9780815334811
p1151
aV9780816310074
p1152
aV9780817639730
p1153
aV9780819568311
p1154
aV9780821225752
p1155
aV9780822020332
p1156
aV9780823013340
p1157
aV9780823021741
p1158
aV9780830619382
p1159
aV9780830632411
p1160
aV9780830633487
p1161
aV9780830634897
p1162
aV9780830642588
p1163
aV9780831131111
p1164
aV9780833030306
p1165
aV9780835606684
p1166
aV9780838448557
p1167
aV9780849326578
p1168
aV9780852742624
p1169
aV9780863774317
p1170
aV9780864425560
p1171
aV9780865712317
p1172
aV9780867202045
p1173
aV9780872598812
p1174
aV9780875102108
p1175
aV9780875845852
p1176
aV9780878424955
p1177
aV9780879850067
p1178
aV9780880227452
p1179
aV9780880294188
p1180
aV9780880387385
p1181
aV9780892131341
p1182
aV9780892133253
p1183
aV9780894120480
p1184
aV9780895294296
p1185
aV9780895884886
p1186
aV9780898155174
p1187
aV9780899971889
p1188
aV9780911010589
p1189
aV9780912045108
p1190
aV9780914171072
p1191
aV9780914171393
p1192
aV9780916571023
p1193
aV9780916856014
p1194
aV9780917510304
p1195
aV9780923891879
p1196
aV9780932415608
p1197
aV9780932813206
p1198
aV9780933201651
p1199
aV9780934375900
p1200
aV9780936184661
p1201
aV9780936184678
p1202
aV9780936184807
p1203
aV9780936184975
p1204
aV9780937175026
p1205
aV9780937175224
p1206
aV9780937175644
p1207
aV9780937175750
p1208
aV9780937175835
p1209
aV9780938077626
p1210
aV9780938151104
p1211
aV9780938151128
p1212
aV9780940685291
p1213
aV9780941423427
p1214
aV9780942299793
p1215
aV9780944958384
p1216
aV9780945053316
p1217
aV9780952614715
p1218
aV9780972751346
p1219
aV9780974078502
p1220
aV9780974514055
p1221
aV9780974514086
p1222
aV9780976694083
p1223
aV9780977616633
p1224
aV9780977809318
p1225
aV9780978739225
p1226
aV9780978739232
p1227
aV9780978739256
p1228
aV9780979034220
p1229
aV9780980181203
p1230
aV9780980455229
p1231
aV9780983507901
p1232
aV9780984072248
p1233
aV9780984260027
p1234
aV9781118034699
p1235
aV9781137264121
p1236
aV9781400013975
p1237
aV9781400065417
p1238
aV9781400079278
p1239
aV9781400082469
p1240
aV9781400096909
p1241
aV9781401201135
p1242
aV9781401210823
p1243
aV9781401210847
p1244
aV9781401210854
p1245
aV9781401301316
p1246
aV9781401864699
p1247
aV9781402212178
p1248
aV9781403996015
p1249
aV9781411695740
p1250
aV9781413303957
p1251
aV9781420106862
p1252
aV9781423101499
p1253
aV9781425965884
p1254
aV9781428205048
p1255
aV9781430219200
p1256
aV9781430219484
p1257
aV9781437701289
p1258
aV9781439181782
p1259
aV9781449304577
p1260
aV9781449305659
p1261
aV9781449312947
p1262
aV9781449312961
p1263
aV9781449381813
p1264
aV9781449390419
p1265
aV9781469901732
p1266
aV9781555976088
p1267
aV9781556229114
p1268
aV9781558284364
p1269
aV9781558284487
p1270
aV9781558510371
p1271
aV9781558511439
p1272
aV9781558512146
p1273
aV9781558603295
p1274
aV9781558603394
p1275
aV9781558603875
p1276
aV9781558604551
p1277
aV9781558606180
p1278
aV9781558608320
p1279
aV9781558608603
p1280
aV9781558608689
p1281
aV9781558609013
p1282
aV9781560766193
p1283
aV9781562056742
p1284
aV9781562058104
p1285
aV9781562059309
p1286
aV9781562059347
p1287
aV9781562059545
p1288
aV9781562761455
p1289
aV9781562765309
p1290
aV9781563471070
p1291
aV9781563521867
p1292
aV9781563894459
p1293
aV9781564969699
p1294
aV9781565125957
p1295
aV9781565920491
p1296
aV9781565921153
p1297
aV9781565921276
p1298
aV9781565921481
p1299
aV9781565921498
p1300
aV9781565922143
p1301
aV9781565922204
p1302
aV9781565922259
p1303
aV9781565922358
p1304
aV9781565922365
p1305
aV9781565922433
p1306
aV9781565922570
p1307
aV9781565922617
p1308
aV9781565922686
p1309
aV9781565922709
p1310
aV9781565922822
p1311
aV9781565922846
p1312
aV9781565922860
p1313
aV9781565923140
p1314
aV9781565923218
p1315
aV9781565923249
p1316
aV9781565923508
p1317
aV9781565923584
p1318
aV9781565923881
p1319
aV9781565924345
p1320
aV9781565924499
p1321
aV9781565924833
p1322
aV9781565924949
p1323
aV9781565925120
p1324
aV9781565925878
p1325
aV9781565926097
p1326
aV9781565926929
p1327
aV9781565926998
p1328
aV9781565927094
p1329
aV9781565927162
p1330
aV9781565928398
p1331
aV9781565928718
p1332
aV9781566867146
p1333
aV9781566869041
p1334
aV9781566910842
p1335
aV9781567511727
p1336
aV9781568028798
p1337
aV9781568303697
p1338
aV9781568810072
p1339
aV9781568810232
p1340
aV9781568810393
p1341
aV9781568810409
p1342
aV9781568810546
p1343
aV9781568811239
p1344
aV9781568811345
p1345
aV9781568985633
p1346
aV9781569710715
p1347
aV9781569710722
p1348
aV9781569710746
p1349
aV9781569711033
p1350
aV9781570270451
p1351
aV9781570610646
p1352
aV9781573223072
p1353
aV9781573980135
p1354
aV9781575860107
p1355
aV9781576104262
p1356
aV9781578512218
p1357
aV9781578700431
p1358
aV9781578700462
p1359
aV9781578700691
p1360
aV9781578700745
p1361
aV9781578700912
p1362
aV9781578700929
p1363
aV9781578701902
p1364
aV9781578702749
p1365
aV9781580420037
p1366
aV9781580530187
p1367
aV9781581152159
p1368
aV9781582340760
p1369
aV9781583225493
p1370
aV9781584500377
p1371
aV9781584504047
p1372
aV9781586482787
p1373
aV9781587051425
p1374
aV9781587130250
p1375
aV9781587130380
p1376
aV9781587200847
p1377
aV9781587200854
p1378
aV9781587201820
p1379
aV9781590592120
p1380
aV9781590594421
p1381
aV9781590595008
p1382
aV9781590595244
p1383
aV9781590595336
p1384
aV9781590595350
p1385
aV9781590595589
p1386
aV9781590596456
p1387
aV9781590597538
p1388
aV9781590598474
p1389
aV9781590790632
p1390
aV9781591843146
p1391
aV9781592006175
p1392
aV9781592401468
p1393
aV9781592577224
p1394
aV9781593077730
p1395
aV9781593270018
p1396
aV9781593270032
p1397
aV9781593270124
p1398
aV9781593270476
p1399
aV9781593270544
p1400
aV9781593270568
p1401
aV9781593270629
p1402
aV9781593271374
p1403
aV9781593271459
p1404
aV9781593271503
p1405
aV9781593271510
p1406
aV9781593271541
p1407
aV9781593271657
p1408
aV9781593271763
p1409
aV9781593271800
p1410
aV9781593271855
p1411
aV9781593272067
p1412
aV9781593272777
p1413
aV9781593272784
p1414
aV9781593272944
p1415
aV9781593273859
p1416
aV9781593273880
p1417
aV9781593274122
p1418
aV9781594201226
p1419
aV9781594201530
p1420
aV9781594630187
p1421
aV9781594630392
p1422
aV9781598639674
p1423
aV9781599180304
p1424
aV9781741047318
p1425
aV9781843090687
p1426
aV9781844253715
p1427
aV9781844675050
p1428
aV9781845990473
p1429
aV9781859606414
p1430
aV9781859960448
p1431
aV9781861002969
p1432
aV9781861008350
p1433
aV9781863736527
p1434
aV9781878707093
p1435
aV9781879505667
p1436
aV9781884777790
p1437
aV9781884942068
p1438
aV9781886411029
p1439
aV9781886411746
p1440
aV9781886411845
p1441
aV9781886801813
p1442
aV9781889892191
p1443
aV9781890132736
p1444
aV9781892391551
p1445
aV9781893007161
p1446
aV9781893554153
p1447
aV9781893956285
p1448
aV9781894893671
p1449
aV9781903450505
p1450
aV9781904600411
p1451
aV9781904811374
p1452
aV9781928982029
p1453
aV9781929752300
p1454
aV9781930110434
p1455
aV9781931836050
p1456
aV9781932360523
p1457
aV9781932394153
p1458
aV9781932394207
p1459
aV9781932394351
p1460
aV9781932394900
p1461
aV9781932394986
p1462
aV9781932416060
p1463
aV9781932416121
p1464
aV9781932416763
p1465
aV9781933390253
p1466
aV9781933615011
p1467
aV9781933615172
p1468
aV9781933615233
p1469
aV9781933615622
p1470
aV9781933988030
p1471
aV9781933988351
p1472
aV9781934356005
p1473
aV9781934356234
p1474
aV9781934356586
p1475
aV9781934386132
p1476
aV9782090338720
p1477
aV9782253003441
p1478
aV9782920845565
p1479
aV9783540591795
p1480
aV9783540637370
p1481
aV9783775719674
p1482
aV9784915645211
p1483
aV9787561910405
p1484
aV9787561910429
p1485
aV9788120307490
p1486
aV9788481560770
p1487
aV9788590379829
p1488
aV9789074597012
p1489
aV9789074597135
p1490
aV9889705486
p1491
a.